; Function Attrs: nounwind sspstrong uwtable
define internal i64 @enum_take_while(i64 noundef %0) #0 {
  %2 = tail call i32 @rb_block_given_p() #14
  %.not = icmp eq i32 %2, 0
  br i1 %.not, label %3, label %7

3:                                                ; preds = %1
  %4 = tail call i64 @rb_frame_this_func() #14
  %5 = tail call i64 @rb_id2sym(i64 noundef %4) #14
  %6 = tail call i64 @rb_enumeratorize_with_size(i64 noundef %0, i64 noundef %5, i32 noundef 0, ptr noundef null, ptr noundef null) #14
  br label %10

7:                                                ; preds = %1
  %8 = tail call i64 @rb_ary_new() #14
  %9 = tail call i64 @rb_block_call(i64 noundef %0, i64 noundef 3073, i32 noundef 0, ptr noundef null, ptr noundef nonnull @take_while_i, i64 noundef %8) #14
  br label %10

10:                                               ; preds = %7, %3
  %.0 = phi i64 [ %8, %7 ], [ %6, %3 ]
  ret i64 %.0
}